target datalayout = "e-m:e-p270:32:32-p271:32:32-p272:64:64-i64:64-i128:128-f80:128-n8:16:32:64-S128"
target triple = "x86_64-pc-linux-gnu"

@.str.6 = private unnamed_addr constant [5 x i8] c"test\00", align 1
@.str.18 = private unnamed_addr constant [33 x i8] c"../openssl/test/evp_extra_test.c\00", align 1
@.str.112 = private unnamed_addr constant [2 x i8] c"0\00", align 1
@.str.338 = private unnamed_addr constant [6 x i8] c"mdctx\00", align 1
@.str.808 = private unnamed_addr constant [52 x i8] c"EVP_DigestUpdate(mdctx, \22test\22, sizeof(\22test\22) - 1)\00", align 1

; Function Attrs: nounwind uwtable
define internal i32 @test_invalid_ctx_for_digest() #0 {
  %1 = alloca i32, align 4
  %2 = alloca i32, align 4
  %3 = alloca ptr, align 8
  %4 = alloca i32, align 4
  call void @llvm.lifetime.start.p0(i64 4, ptr %2) #8
  call void @llvm.lifetime.start.p0(i64 8, ptr %3) #8
  %5 = call ptr @EVP_MD_CTX_new()
  store ptr %5, ptr %3, align 8, !tbaa !25
  %6 = load ptr, ptr %3, align 8, !tbaa !25
  %7 = call i32 @test_ptr(ptr noundef @.str.18, i32 noundef 6308, ptr noundef @.str.338, ptr noundef %6)
  %8 = icmp ne i32 %7, 0
  br i1 %8, label %10, label %9

9:                                                ; preds = %0
  store i32 0, ptr %1, align 4
  store i32 1, ptr %4, align 4
  br label %20

10:                                               ; preds = %0
  %11 = load ptr, ptr %3, align 8, !tbaa !25
  %12 = call i32 @EVP_DigestUpdate(ptr noundef %11, ptr noundef @.str.6, i64 noundef 4)
  %13 = call i32 @test_int_eq(ptr noundef @.str.18, i32 noundef 6311, ptr noundef @.str.808, ptr noundef @.str.112, i32 noundef %12, i32 noundef 0)
  %14 = icmp ne i32 %13, 0
  br i1 %14, label %16, label %15

15:                                               ; preds = %10
  store i32 0, ptr %2, align 4, !tbaa !9
  br label %17

16:                                               ; preds = %10
  store i32 1, ptr %2, align 4, !tbaa !9
  br label %17

17:                                               ; preds = %16, %15
  %18 = load ptr, ptr %3, align 8, !tbaa !25
  call void @EVP_MD_CTX_free(ptr noundef %18)
  %19 = load i32, ptr %2, align 4, !tbaa !9
  store i32 %19, ptr %1, align 4
  store i32 1, ptr %4, align 4
  br label %20

20:                                               ; preds = %17, %9
  call void @llvm.lifetime.end.p0(i64 8, ptr %3) #8
  call void @llvm.lifetime.end.p0(i64 4, ptr %2) #8
  %21 = load i32, ptr %1, align 4
  ret i32 %21
}