; Function Attrs: nounwind uwtable
define internal range(i32 0, 2) i32 @test_invalid_ctx_for_digest() #1 {
  %1 = tail call ptr @EVP_MD_CTX_new() #9
  %2 = tail call i32 @test_ptr(ptr noundef nonnull @.str.18, i32 noundef 6308, ptr noundef nonnull @.str.338, ptr noundef %1) #9
  %.not = icmp eq i32 %2, 0
  br i1 %.not, label %6, label %3

3:                                                ; preds = %0
  %4 = tail call i32 @EVP_DigestUpdate(ptr noundef %1, ptr noundef nonnull @.str.6, i64 noundef 4) #9
  %5 = tail call i32 @test_int_eq(ptr noundef nonnull @.str.18, i32 noundef 6311, ptr noundef nonnull @.str.808, ptr noundef nonnull @.str.112, i32 noundef %4, i32 noundef 0) #9
  %.not5 = icmp ne i32 %5, 0
  %. = zext i1 %.not5 to i32
  tail call void @EVP_MD_CTX_free(ptr noundef %1) #9
  br label %6

6:                                                ; preds = %0, %3
  %.0 = phi i32 [ %., %3 ], [ 0, %0 ]
  ret i32 %.0
}